target datalayout = "e-m:e-p270:32:32-p271:32:32-p272:64:64-i64:64-i128:128-f80:128-n8:16:32:64-S128"
target triple = "x86_64-pc-linux-gnu"

%struct.FilterParams = type { i32, double, ptr, ptr, ptr }

; Function Attrs: nounwind uwtable
define internal void @blend_hardoverlay_10bit(ptr noundef %0, i64 noundef %1, ptr noundef %2, i64 noundef %3, ptr noundef %4, i64 noundef %5, i64 noundef %6, i64 noundef %7, ptr noundef %8, ptr noundef %9) #0 {
  %11 = alloca ptr, align 8
  %12 = alloca i64, align 8
  %13 = alloca ptr, align 8
  %14 = alloca i64, align 8
  %15 = alloca ptr, align 8
  %16 = alloca i64, align 8
  %17 = alloca i64, align 8
  %18 = alloca i64, align 8
  %19 = alloca ptr, align 8
  %20 = alloca ptr, align 8
  %21 = alloca ptr, align 8
  %22 = alloca ptr, align 8
  %23 = alloca ptr, align 8
  %24 = alloca float, align 4
  %25 = alloca i32, align 4
  %26 = alloca i32, align 4
  %27 = alloca i32, align 4
  store ptr %0, ptr %11, align 8, !tbaa !46
  store i64 %1, ptr %12, align 8, !tbaa !88
  store ptr %2, ptr %13, align 8, !tbaa !46
  store i64 %3, ptr %14, align 8, !tbaa !88
  store ptr %4, ptr %15, align 8, !tbaa !46
  store i64 %5, ptr %16, align 8, !tbaa !88
  store i64 %6, ptr %17, align 8, !tbaa !88
  store i64 %7, ptr %18, align 8, !tbaa !88
  store ptr %8, ptr %19, align 8, !tbaa !77
  store ptr %9, ptr %20, align 8, !tbaa !89
  call void @llvm.lifetime.start.p0(i64 8, ptr %21) #12
  %28 = load ptr, ptr %11, align 8, !tbaa !46
  store ptr %28, ptr %21, align 8, !tbaa !103
  call void @llvm.lifetime.start.p0(i64 8, ptr %22) #12
  %29 = load ptr, ptr %13, align 8, !tbaa !46
  store ptr %29, ptr %22, align 8, !tbaa !103
  call void @llvm.lifetime.start.p0(i64 8, ptr %23) #12
  %30 = load ptr, ptr %15, align 8, !tbaa !46
  store ptr %30, ptr %23, align 8, !tbaa !103
  call void @llvm.lifetime.start.p0(i64 4, ptr %24) #12
  %31 = load ptr, ptr %19, align 8, !tbaa !77
  %32 = getelementptr inbounds nuw %struct.FilterParams, ptr %31, i32 0, i32 1
  %33 = load double, ptr %32, align 8, !tbaa !82
  %34 = fptrunc nsz double %33 to float
  store float %34, ptr %24, align 4, !tbaa !99
  %35 = load i64, ptr %16, align 8, !tbaa !88
  %36 = udiv i64 %35, 2
  store i64 %36, ptr %16, align 8, !tbaa !88
  %37 = load i64, ptr %12, align 8, !tbaa !88
  %38 = udiv i64 %37, 2
  store i64 %38, ptr %12, align 8, !tbaa !88
  %39 = load i64, ptr %14, align 8, !tbaa !88
  %40 = udiv i64 %39, 2
  store i64 %40, ptr %14, align 8, !tbaa !88
  call void @llvm.lifetime.start.p0(i64 4, ptr %25) #12
  store i32 0, ptr %25, align 4, !tbaa !37
  br label %41

41:                                               ; preds = %206, %10
  %42 = load i32, ptr %25, align 4, !tbaa !37
  %43 = sext i32 %42 to i64
  %44 = load i64, ptr %18, align 8, !tbaa !88
  %45 = icmp slt i64 %43, %44
  br i1 %45, label %47, label %46

46:                                               ; preds = %41
  store i32 2, ptr %26, align 4
  call void @llvm.lifetime.end.p0(i64 4, ptr %25) #12
  br label %209

47:                                               ; preds = %41
  call void @llvm.lifetime.start.p0(i64 4, ptr %27) #12
  store i32 0, ptr %27, align 4, !tbaa !37
  br label %48

48:                                               ; preds = %193, %47
  %49 = load i32, ptr %27, align 4, !tbaa !37
  %50 = sext i32 %49 to i64
  %51 = load i64, ptr %17, align 8, !tbaa !88
  %52 = icmp slt i64 %50, %51
  br i1 %52, label %54, label %53

53:                                               ; preds = %48
  store i32 5, ptr %26, align 4
  call void @llvm.lifetime.end.p0(i64 4, ptr %27) #12
  br label %196

54:                                               ; preds = %48
  %55 = load ptr, ptr %21, align 8, !tbaa !103
  %56 = load i32, ptr %27, align 4, !tbaa !37
  %57 = sext i32 %56 to i64
  %58 = getelementptr inbounds i16, ptr %55, i64 %57
  %59 = load i16, ptr %58, align 2, !tbaa !105
  %60 = zext i16 %59 to i32
  %61 = sitofp i32 %60 to float
  %62 = load ptr, ptr %21, align 8, !tbaa !103
  %63 = load i32, ptr %27, align 4, !tbaa !37
  %64 = sext i32 %63 to i64
  %65 = getelementptr inbounds i16, ptr %62, i64 %64
  %66 = load i16, ptr %65, align 2, !tbaa !105
  %67 = zext i16 %66 to i32
  %68 = icmp eq i32 %67, 1023
  br i1 %68, label %69, label %70

69:                                               ; preds = %54
  br label %176

70:                                               ; preds = %54
  %71 = load ptr, ptr %22, align 8, !tbaa !103
  %72 = load i32, ptr %27, align 4, !tbaa !37
  %73 = sext i32 %72 to i64
  %74 = getelementptr inbounds i16, ptr %71, i64 %73
  %75 = load i16, ptr %74, align 2, !tbaa !105
  %76 = zext i16 %75 to i32
  %77 = mul nsw i32 1023, %76
  %78 = load ptr, ptr %21, align 8, !tbaa !103
  %79 = load i32, ptr %27, align 4, !tbaa !37
  %80 = sext i32 %79 to i64
  %81 = getelementptr inbounds i16, ptr %78, i64 %80
  %82 = load i16, ptr %81, align 2, !tbaa !105
  %83 = zext i16 %82 to i32
  %84 = mul nsw i32 2, %83
  %85 = sub nsw i32 2046, %84
  %86 = sdiv i32 %77, %85
  %87 = load ptr, ptr %21, align 8, !tbaa !103
  %88 = load i32, ptr %27, align 4, !tbaa !37
  %89 = sext i32 %88 to i64
  %90 = getelementptr inbounds i16, ptr %87, i64 %89
  %91 = load i16, ptr %90, align 2, !tbaa !105
  %92 = zext i16 %91 to i32
  %93 = icmp sgt i32 %92, 512
  %94 = zext i1 %93 to i32
  %95 = mul nsw i32 %86, %94
  %96 = load ptr, ptr %21, align 8, !tbaa !103
  %97 = load i32, ptr %27, align 4, !tbaa !37
  %98 = sext i32 %97 to i64
  %99 = getelementptr inbounds i16, ptr %96, i64 %98
  %100 = load i16, ptr %99, align 2, !tbaa !105
  %101 = zext i16 %100 to i32
  %102 = mul nsw i32 2, %101
  %103 = load ptr, ptr %22, align 8, !tbaa !103
  %104 = load i32, ptr %27, align 4, !tbaa !37
  %105 = sext i32 %104 to i64
  %106 = getelementptr inbounds i16, ptr %103, i64 %105
  %107 = load i16, ptr %106, align 2, !tbaa !105
  %108 = zext i16 %107 to i32
  %109 = mul nsw i32 %102, %108
  %110 = sdiv i32 %109, 1023
  %111 = load ptr, ptr %21, align 8, !tbaa !103
  %112 = load i32, ptr %27, align 4, !tbaa !37
  %113 = sext i32 %112 to i64
  %114 = getelementptr inbounds i16, ptr %111, i64 %113
  %115 = load i16, ptr %114, align 2, !tbaa !105
  %116 = zext i16 %115 to i32
  %117 = icmp sle i32 %116, 512
  %118 = zext i1 %117 to i32
  %119 = mul nsw i32 %110, %118
  %120 = add nsw i32 %95, %119
  %121 = icmp sgt i32 1023, %120
  br i1 %121, label %122, label %173

122:                                              ; preds = %70
  %123 = load ptr, ptr %22, align 8, !tbaa !103
  %124 = load i32, ptr %27, align 4, !tbaa !37
  %125 = sext i32 %124 to i64
  %126 = getelementptr inbounds i16, ptr %123, i64 %125
  %127 = load i16, ptr %126, align 2, !tbaa !105
  %128 = zext i16 %127 to i32
  %129 = mul nsw i32 1023, %128
  %130 = load ptr, ptr %21, align 8, !tbaa !103
  %131 = load i32, ptr %27, align 4, !tbaa !37
  %132 = sext i32 %131 to i64
  %133 = getelementptr inbounds i16, ptr %130, i64 %132
  %134 = load i16, ptr %133, align 2, !tbaa !105
  %135 = zext i16 %134 to i32
  %136 = mul nsw i32 2, %135
  %137 = sub nsw i32 2046, %136
  %138 = sdiv i32 %129, %137
  %139 = load ptr, ptr %21, align 8, !tbaa !103
  %140 = load i32, ptr %27, align 4, !tbaa !37
  %141 = sext i32 %140 to i64
  %142 = getelementptr inbounds i16, ptr %139, i64 %141
  %143 = load i16, ptr %142, align 2, !tbaa !105
  %144 = zext i16 %143 to i32
  %145 = icmp sgt i32 %144, 512
  %146 = zext i1 %145 to i32
  %147 = mul nsw i32 %138, %146
  %148 = load ptr, ptr %21, align 8, !tbaa !103
  %149 = load i32, ptr %27, align 4, !tbaa !37
  %150 = sext i32 %149 to i64
  %151 = getelementptr inbounds i16, ptr %148, i64 %150
  %152 = load i16, ptr %151, align 2, !tbaa !105
  %153 = zext i16 %152 to i32
  %154 = mul nsw i32 2, %153
  %155 = load ptr, ptr %22, align 8, !tbaa !103
  %156 = load i32, ptr %27, align 4, !tbaa !37
  %157 = sext i32 %156 to i64
  %158 = getelementptr inbounds i16, ptr %155, i64 %157
  %159 = load i16, ptr %158, align 2, !tbaa !105
  %160 = zext i16 %159 to i32
  %161 = mul nsw i32 %154, %160
  %162 = sdiv i32 %161, 1023
  %163 = load ptr, ptr %21, align 8, !tbaa !103
  %164 = load i32, ptr %27, align 4, !tbaa !37
  %165 = sext i32 %164 to i64
  %166 = getelementptr inbounds i16, ptr %163, i64 %165
  %167 = load i16, ptr %166, align 2, !tbaa !105
  %168 = zext i16 %167 to i32
  %169 = icmp sle i32 %168, 512
  %170 = zext i1 %169 to i32
  %171 = mul nsw i32 %162, %170
  %172 = add nsw i32 %147, %171
  br label %174

173:                                              ; preds = %70
  br label %174

174:                                              ; preds = %173, %122
  %175 = phi i32 [ %172, %122 ], [ 1023, %173 ]
  br label %176

176:                                              ; preds = %174, %69
  %177 = phi i32 [ 1023, %69 ], [ %175, %174 ]
  %178 = load ptr, ptr %21, align 8, !tbaa !103
  %179 = load i32, ptr %27, align 4, !tbaa !37
  %180 = sext i32 %179 to i64
  %181 = getelementptr inbounds i16, ptr %178, i64 %180
  %182 = load i16, ptr %181, align 2, !tbaa !105
  %183 = zext i16 %182 to i32
  %184 = sub nsw i32 %177, %183
  %185 = sitofp i32 %184 to float
  %186 = load float, ptr %24, align 4, !tbaa !99
  %187 = call nsz float @llvm.fmuladd.f32(float %185, float %186, float %61)
  %188 = fptoui float %187 to i16
  %189 = load ptr, ptr %23, align 8, !tbaa !103
  %190 = load i32, ptr %27, align 4, !tbaa !37
  %191 = sext i32 %190 to i64
  %192 = getelementptr inbounds i16, ptr %189, i64 %191
  store i16 %188, ptr %192, align 2, !tbaa !105
  br label %193

193:                                              ; preds = %176
  %194 = load i32, ptr %27, align 4, !tbaa !37
  %195 = add nsw i32 %194, 1
  store i32 %195, ptr %27, align 4, !tbaa !37
  br label %48, !llvm.loop !348

196:                                              ; preds = %53
  %197 = load i64, ptr %16, align 8, !tbaa !88
  %198 = load ptr, ptr %23, align 8, !tbaa !103
  %199 = getelementptr inbounds i16, ptr %198, i64 %197
  store ptr %199, ptr %23, align 8, !tbaa !103
  %200 = load i64, ptr %12, align 8, !tbaa !88
  %201 = load ptr, ptr %21, align 8, !tbaa !103
  %202 = getelementptr inbounds i16, ptr %201, i64 %200
  store ptr %202, ptr %21, align 8, !tbaa !103
  %203 = load i64, ptr %14, align 8, !tbaa !88
  %204 = load ptr, ptr %22, align 8, !tbaa !103
  %205 = getelementptr inbounds i16, ptr %204, i64 %203
  store ptr %205, ptr %22, align 8, !tbaa !103
  br label %206

206:                                              ; preds = %196
  %207 = load i32, ptr %25, align 4, !tbaa !37
  %208 = add nsw i32 %207, 1
  store i32 %208, ptr %25, align 4, !tbaa !37
  br label %41, !llvm.loop !349

209:                                              ; preds = %46
  call void @llvm.lifetime.end.p0(i64 4, ptr %24) #12
  call void @llvm.lifetime.end.p0(i64 8, ptr %23) #12
  call void @llvm.lifetime.end.p0(i64 8, ptr %22) #12
  call void @llvm.lifetime.end.p0(i64 8, ptr %21) #12
  ret void
}